; Function Attrs: nounwind uwtable
define hidden range(i32 -1, 1) i32 @_PyTestCapi_Init_Structmember(ptr noundef %0) local_unnamed_addr #0 {
  %2 = tail call i32 @PyType_Ready(ptr noundef nonnull @test_structmembersType_OldAPI) #5
  %3 = icmp slt i32 %2, 0
  br i1 %3, label %16, label %4

4:                                                ; preds = %1
  %5 = tail call i32 @PyModule_AddObjectRef(ptr noundef %0, ptr noundef nonnull @.str, ptr noundef nonnull @test_structmembersType_OldAPI) #5
  %6 = icmp slt i32 %5, 0
  br i1 %6, label %16, label %7

7:                                                ; preds = %4
  %8 = tail call ptr @PyType_FromModuleAndSpec(ptr noundef %0, ptr noundef nonnull @test_structmembers_spec, ptr noundef null) #5
  %.not = icmp eq ptr %8, null
  br i1 %.not, label %16, label %9

9:                                                ; preds = %7
  %10 = tail call i32 @PyModule_AddType(ptr noundef %0, ptr noundef nonnull %8) #5
  %11 = load i32, ptr %8, align 8, !tbaa !3
  %.not.i = icmp sgt i32 %11, -1
  br i1 %.not.i, label %12, label %Py_DECREF.exit

12:                                               ; preds = %9
  %13 = add nsw i32 %11, -1
  store i32 %13, ptr %8, align 8, !tbaa !3
  %14 = icmp eq i32 %13, 0
  br i1 %14, label %15, label %Py_DECREF.exit

15:                                               ; preds = %12
  tail call void @_Py_Dealloc(ptr noundef nonnull %8) #5
  br label %Py_DECREF.exit

Py_DECREF.exit:                                   ; preds = %9, %12, %15
  %.lobit = ashr i32 %10, 31
  br label %16

16:                                               ; preds = %7, %Py_DECREF.exit, %4, %1
  %.0 = phi i32 [ -1, %1 ], [ -1, %4 ], [ -1, %7 ], [ %.lobit, %Py_DECREF.exit ]
  ret i32 %.0
}